target datalayout = "e-m:e-p270:32:32-p271:32:32-p272:64:64-i64:64-i128:128-f80:128-n8:16:32:64-S128"
target triple = "x86_64-pc-linux-gnu"

%class.symbol = type { ptr }

@_ZL15g_symbol_tables = internal global ptr null, align 8

; Function Attrs: mustprogress uwtable
define hidden noundef nonnull align 8 dereferenceable(8) ptr @_ZN6symbolaSEPKc(ptr noundef nonnull align 8 dereferenceable(8) %0, ptr noundef %1) #5 align 2 {
  %3 = alloca ptr, align 8
  %4 = alloca ptr, align 8
  store ptr %0, ptr %3, align 8, !tbaa !3
  store ptr %1, ptr %4, align 8, !tbaa !27
  %5 = load ptr, ptr %3, align 8
  %6 = load ptr, ptr %4, align 8, !tbaa !27
  %7 = icmp ne ptr %6, null
  br i1 %7, label %8, label %12

8:                                                ; preds = %2
  %9 = load ptr, ptr @_ZL15g_symbol_tables, align 8, !tbaa !12
  %10 = load ptr, ptr %4, align 8, !tbaa !27
  %11 = call noundef ptr @_ZN22internal_symbol_tables7get_strEPKc(ptr noundef nonnull align 8 dereferenceable(16) %9, ptr noundef %10)
  br label %13

12:                                               ; preds = %2
  br label %13

13:                                               ; preds = %12, %8
  %14 = phi ptr [ %11, %8 ], [ null, %12 ]
  %15 = getelementptr inbounds nuw %class.symbol, ptr %5, i32 0, i32 0
  store ptr %14, ptr %15, align 8, !tbaa !9
  ret ptr %5
}