; Function Attrs: mustprogress uwtable
define hidden noundef nonnull align 8 dereferenceable(8) ptr @_ZN6symbolaSEPKc(ptr noundef nonnull returned writeonly align 8 captures(ret: address, provenance) dereferenceable(8) initializes((0, 8)) %0, ptr noundef %1) local_unnamed_addr #3 align 2 {
  %.not = icmp eq ptr %1, null
  br i1 %.not, label %6, label %3

3:                                                ; preds = %2
  %4 = load ptr, ptr @_ZL15g_symbol_tables, align 8, !tbaa !3
  %5 = tail call noundef ptr @_ZN22internal_symbol_tables7get_strEPKc(ptr noundef nonnull align 8 dereferenceable(16) %4, ptr noundef nonnull %1)
  br label %6

6:                                                ; preds = %2, %3
  %7 = phi ptr [ %5, %3 ], [ null, %2 ]
  store ptr %7, ptr %0, align 8, !tbaa !34
  ret ptr %0
}